target datalayout = "e-m:e-p270:32:32-p271:32:32-p272:64:64-i64:64-i128:128-f80:128-n8:16:32:64-S128"
target triple = "x86_64-pc-linux-gnu"

%struct.pdf_struct = type { ptr, i32, i32, i32, i32, i32, ptr, i64, ptr, i64, i64, i64, ptr, ptr, i32, i32, ptr, i32, ptr, i32, %struct.pdf_stats, ptr, i32, i32 }
%struct.pdf_stats = type { i32, i32, i32, i32, i32, i32, i32, i32, i32, i32, i32, i32, i32, i32, i32, i32, i32, i32, i32, i32, i32, i32, i32, i32, i32, ptr, ptr, ptr, ptr, ptr, ptr, ptr, ptr }
%struct.objstm_struct = type { i32, i32, i32, i32, i32, i32, ptr, i64 }
%struct.pdf_obj = type { i32, i64, i32, i32, i32, i32, [64 x i32], ptr, i64, ptr, ptr, i8 }

@.str.161 = private unnamed_addr constant [57 x i8] c"pdf_find_and_parse_objs_in_objstm: Empty object stream.\0A\00", align 1
@.str.162 = private unnamed_addr constant [107 x i8] c"pdf_find_and_parse_objs_in_objstm: Invalid objstm values. Offset of first obj greater than stream length.\0A\00", align 1
@.str.163 = private unnamed_addr constant [64 x i8] c"Timeout reached in the PDF parser while parsing object stream.\0A\00", align 1
@.str.164 = private unnamed_addr constant [98 x i8] c"pdf_find_and_parse_objs_in_objstm: Fewer objects in stream than expected: %u found, %u expected.\0A\00", align 1
@.str.165 = private unnamed_addr constant [86 x i8] c"pdf_find_and_parse_objs_in_objstm: Found object %u %u in object stream at offset: %u\0A\00", align 1

; Function Attrs: nounwind uwtable
define i32 @pdf_find_and_parse_objs_in_objstm(ptr noundef %0, ptr noundef %1) #0 {
  %3 = alloca ptr, align 8
  %4 = alloca ptr, align 8
  %5 = alloca i32, align 4
  %6 = alloca i32, align 4
  %7 = alloca i32, align 4
  %8 = alloca i64, align 8
  %9 = alloca ptr, align 8
  store ptr %0, ptr %3, align 8
  store ptr %1, ptr %4, align 8
  store i32 26, ptr %5, align 4
  store i32 27, ptr %6, align 4
  store i32 0, ptr %7, align 4
  store i64 0, ptr %8, align 8
  store ptr null, ptr %9, align 8
  %10 = load ptr, ptr %4, align 8
  %11 = icmp eq ptr null, %10
  br i1 %11, label %17, label %12

12:                                               ; preds = %2
  %13 = load ptr, ptr %4, align 8
  %14 = getelementptr inbounds %struct.objstm_struct, ptr %13, i32 0, i32 6
  %15 = load ptr, ptr %14, align 8
  %16 = icmp eq ptr null, %15
  br i1 %16, label %17, label %18

17:                                               ; preds = %12, %2
  store i32 3, ptr %5, align 4
  br label %112

18:                                               ; preds = %12
  %19 = load ptr, ptr %4, align 8
  %20 = getelementptr inbounds %struct.objstm_struct, ptr %19, i32 0, i32 0
  %21 = load i32, ptr %20, align 8
  %22 = icmp eq i32 0, %21
  br i1 %22, label %33, label %23

23:                                               ; preds = %18
  %24 = load ptr, ptr %4, align 8
  %25 = getelementptr inbounds %struct.objstm_struct, ptr %24, i32 0, i32 7
  %26 = load i64, ptr %25, align 8
  %27 = icmp eq i64 0, %26
  br i1 %27, label %33, label %28

28:                                               ; preds = %23
  %29 = load ptr, ptr %4, align 8
  %30 = getelementptr inbounds %struct.objstm_struct, ptr %29, i32 0, i32 4
  %31 = load i32, ptr %30, align 8
  %32 = icmp eq i32 0, %31
  br i1 %32, label %33, label %34

33:                                               ; preds = %28, %23, %18
  call void (ptr, ...) @cli_dbgmsg(ptr noundef @.str.161)
  br label %112

34:                                               ; preds = %28
  %35 = load ptr, ptr %4, align 8
  %36 = getelementptr inbounds %struct.objstm_struct, ptr %35, i32 0, i32 0
  %37 = load i32, ptr %36, align 8
  %38 = zext i32 %37 to i64
  %39 = load ptr, ptr %4, align 8
  %40 = getelementptr inbounds %struct.objstm_struct, ptr %39, i32 0, i32 7
  %41 = load i64, ptr %40, align 8
  %42 = icmp uge i64 %38, %41
  br i1 %42, label %43, label %44

43:                                               ; preds = %34
  call void (ptr, ...) @cli_dbgmsg(ptr noundef @.str.162)
  br label %112

44:                                               ; preds = %34
  store i64 0, ptr %8, align 8
  br label %45

45:                                               ; preds = %104, %44
  %46 = load i64, ptr %8, align 8
  %47 = load ptr, ptr %4, align 8
  %48 = getelementptr inbounds %struct.objstm_struct, ptr %47, i32 0, i32 4
  %49 = load i32, ptr %48, align 8
  %50 = zext i32 %49 to i64
  %51 = icmp ult i64 %46, %50
  br i1 %51, label %52, label %107

52:                                               ; preds = %45
  store ptr null, ptr %9, align 8
  %53 = load ptr, ptr %3, align 8
  %54 = getelementptr inbounds %struct.pdf_struct, ptr %53, i32 0, i32 12
  %55 = load ptr, ptr %54, align 8
  %56 = call i32 @cli_checktimelimit(ptr noundef %55)
  %57 = icmp ne i32 %56, 0
  br i1 %57, label %58, label %59

58:                                               ; preds = %52
  call void (ptr, ...) @cli_dbgmsg(ptr noundef @.str.163)
  store i32 21, ptr %5, align 4
  br label %112

59:                                               ; preds = %52
  %60 = load ptr, ptr %3, align 8
  %61 = load ptr, ptr %4, align 8
  %62 = call i32 @pdf_findobj_in_objstm(ptr noundef %60, ptr noundef %61, ptr noundef %9)
  store i32 %62, ptr %6, align 4
  %63 = load i32, ptr %6, align 4
  %64 = icmp ne i32 %63, 0
  br i1 %64, label %65, label %83

65:                                               ; preds = %59
  %66 = load i32, ptr %6, align 4
  %67 = icmp ne i32 %66, 22
  br i1 %67, label %68, label %82

68:                                               ; preds = %65
  %69 = load ptr, ptr %4, align 8
  %70 = getelementptr inbounds %struct.objstm_struct, ptr %69, i32 0, i32 5
  %71 = load i32, ptr %70, align 4
  %72 = load ptr, ptr %4, align 8
  %73 = getelementptr inbounds %struct.objstm_struct, ptr %72, i32 0, i32 4
  %74 = load i32, ptr %73, align 8
  call void (ptr, ...) @cli_dbgmsg(ptr noundef @.str.164, i32 noundef %71, i32 noundef %74)
  %75 = load i32, ptr %7, align 4
  %76 = add i32 %75, 1
  store i32 %76, ptr %7, align 4
  %77 = load ptr, ptr %3, align 8
  %78 = getelementptr inbounds %struct.pdf_struct, ptr %77, i32 0, i32 20
  %79 = getelementptr inbounds %struct.pdf_stats, ptr %78, i32 0, i32 0
  %80 = load i32, ptr %79, align 8
  %81 = add nsw i32 %80, 1
  store i32 %81, ptr %79, align 8
  br label %82

82:                                               ; preds = %68, %65
  br label %107

83:                                               ; preds = %59
  %84 = load ptr, ptr %9, align 8
  %85 = getelementptr inbounds %struct.pdf_obj, ptr %84, i32 0, i32 2
  %86 = load i32, ptr %85, align 8
  %87 = lshr i32 %86, 8
  %88 = load ptr, ptr %9, align 8
  %89 = getelementptr inbounds %struct.pdf_obj, ptr %88, i32 0, i32 2
  %90 = load i32, ptr %89, align 8
  %91 = and i32 %90, 255
  %92 = load ptr, ptr %9, align 8
  %93 = getelementptr inbounds %struct.pdf_obj, ptr %92, i32 0, i32 0
  %94 = load i32, ptr %93, align 8
  call void (ptr, ...) @cli_dbgmsg(ptr noundef @.str.165, i32 noundef %87, i32 noundef %91, i32 noundef %94)
  %95 = load ptr, ptr %3, align 8
  %96 = getelementptr inbounds %struct.pdf_struct, ptr %95, i32 0, i32 12
  %97 = load ptr, ptr %96, align 8
  %98 = call i32 @cli_checktimelimit(ptr noundef %97)
  %99 = icmp ne i32 %98, 0
  br i1 %99, label %100, label %101

100:                                              ; preds = %83
  call void (ptr, ...) @cli_dbgmsg(ptr noundef @.str.163)
  store i32 21, ptr %5, align 4
  br label %112

101:                                              ; preds = %83
  %102 = load ptr, ptr %3, align 8
  %103 = load ptr, ptr %9, align 8
  call void @pdf_parseobj(ptr noundef %102, ptr noundef %103)
  br label %104

104:                                              ; preds = %101
  %105 = load i64, ptr %8, align 8
  %106 = add i64 %105, 1
  store i64 %106, ptr %8, align 8
  br label %45

107:                                              ; preds = %82, %45
  %108 = load i32, ptr %7, align 4
  %109 = icmp ne i32 %108, 0
  br i1 %109, label %110, label %111

110:                                              ; preds = %107
  store i32 26, ptr %5, align 4
  br label %112

111:                                              ; preds = %107
  store i32 0, ptr %5, align 4
  br label %112

112:                                              ; preds = %111, %110, %100, %58, %43, %33, %17
  %113 = load i32, ptr %5, align 4
  ret i32 %113
}