; Function Attrs: nounwind uwtable
define noundef i32 @pdf_find_and_parse_objs_in_objstm(ptr noundef %0, ptr noundef %1) local_unnamed_addr #0 {
  %3 = alloca ptr, align 8
  %4 = icmp eq ptr %1, null
  br i1 %4, label %.loopexit, label %5

5:                                                ; preds = %2
  %6 = getelementptr inbounds i8, ptr %1, i64 24
  %7 = load ptr, ptr %6, align 8
  %8 = icmp eq ptr %7, null
  br i1 %8, label %.loopexit, label %9

9:                                                ; preds = %5
  %10 = load i32, ptr %1, align 8
  %11 = icmp eq i32 %10, 0
  br i1 %11, label %20, label %12

12:                                               ; preds = %9
  %13 = getelementptr inbounds i8, ptr %1, i64 32
  %14 = load i64, ptr %13, align 8
  %15 = icmp eq i64 %14, 0
  br i1 %15, label %20, label %16

16:                                               ; preds = %12
  %17 = getelementptr inbounds i8, ptr %1, i64 16
  %18 = load i32, ptr %17, align 8
  %19 = icmp eq i32 %18, 0
  br i1 %19, label %20, label %21

20:                                               ; preds = %16, %12, %9
  tail call void (ptr, ...) @cli_dbgmsg(ptr noundef nonnull @.str.161) #22
  br label %.loopexit

21:                                               ; preds = %16
  %22 = zext i32 %10 to i64
  %.not = icmp ugt i64 %14, %22
  br i1 %.not, label %.lr.ph, label %24

.lr.ph:                                           ; preds = %21
  %23 = getelementptr inbounds i8, ptr %0, i64 80
  br label %25

24:                                               ; preds = %21
  tail call void (ptr, ...) @cli_dbgmsg(ptr noundef nonnull @.str.162) #22
  br label %.loopexit

25:                                               ; preds = %.lr.ph, %41
  %.034 = phi i64 [ 0, %.lr.ph ], [ %42, %41 ]
  store ptr null, ptr %3, align 8
  %26 = load ptr, ptr %23, align 8
  %27 = tail call i32 @cli_checktimelimit(ptr noundef %26) #22
  %.not28 = icmp eq i32 %27, 0
  br i1 %.not28, label %29, label %28

28:                                               ; preds = %25
  tail call void (ptr, ...) @cli_dbgmsg(ptr noundef nonnull @.str.163) #22
  br label %.loopexit

29:                                               ; preds = %25
  %30 = call i32 @pdf_findobj_in_objstm(ptr noundef nonnull %0, ptr noundef nonnull %1, ptr noundef nonnull %3), !range !4
  switch i32 %30, label %46 [
    i32 0, label %31
    i32 22, label %.loopexit
  ]

31:                                               ; preds = %29
  %32 = load ptr, ptr %3, align 8
  %33 = getelementptr inbounds i8, ptr %32, i64 16
  %34 = load i32, ptr %33, align 8
  %35 = lshr i32 %34, 8
  %36 = and i32 %34, 255
  %37 = load i32, ptr %32, align 8
  tail call void (ptr, ...) @cli_dbgmsg(ptr noundef nonnull @.str.165, i32 noundef %35, i32 noundef %36, i32 noundef %37) #22
  %38 = load ptr, ptr %23, align 8
  %39 = tail call i32 @cli_checktimelimit(ptr noundef %38) #22
  %.not30 = icmp eq i32 %39, 0
  br i1 %.not30, label %41, label %40

40:                                               ; preds = %31
  tail call void (ptr, ...) @cli_dbgmsg(ptr noundef nonnull @.str.163) #22
  br label %.loopexit

41:                                               ; preds = %31
  tail call void @pdf_parseobj(ptr noundef nonnull %0, ptr noundef nonnull %32)
  %42 = add nuw nsw i64 %.034, 1
  %43 = load i32, ptr %17, align 8
  %44 = zext i32 %43 to i64
  %45 = icmp ult i64 %42, %44
  br i1 %45, label %25, label %.loopexit

46:                                               ; preds = %29
  %47 = getelementptr inbounds i8, ptr %1, i64 20
  %48 = load i32, ptr %47, align 4
  %49 = load i32, ptr %17, align 8
  tail call void (ptr, ...) @cli_dbgmsg(ptr noundef nonnull @.str.164, i32 noundef %48, i32 noundef %49) #22
  %50 = getelementptr inbounds i8, ptr %0, i64 136
  %51 = load i32, ptr %50, align 8
  %52 = add nsw i32 %51, 1
  store i32 %52, ptr %50, align 8
  br label %.loopexit

.loopexit:                                        ; preds = %29, %41, %46, %2, %5, %40, %28, %24, %20
  %.023 = phi i32 [ 26, %20 ], [ 26, %24 ], [ 21, %28 ], [ 21, %40 ], [ 3, %5 ], [ 3, %2 ], [ 26, %46 ], [ 0, %41 ], [ 0, %29 ]
  ret i32 %.023
}